target datalayout = "e-m:e-p270:32:32-p271:32:32-p272:64:64-i64:64-i128:128-f80:128-n8:16:32:64-S128"
target triple = "x86_64-pc-linux-gnu"

; Function Attrs: nounwind null_pointer_is_valid sspstrong uwtable
define hidden float @ieee80211_htrate(i32 noundef %0, i1 noundef zeroext %1, i1 noundef zeroext %2) #0 {
  %4 = alloca i32, align 4
  %5 = alloca i8, align 1
  %6 = alloca i8, align 1
  store i32 %0, ptr %4, align 4
  %7 = zext i1 %1 to i8
  store i8 %7, ptr %5, align 1
  %8 = zext i1 %2 to i8
  store i8 %8, ptr %6, align 1
  %9 = load i32, ptr %4, align 4
  %10 = sext i32 %9 to i64
  %11 = getelementptr [77 x i16], ptr @ieee80211_ht_Dbps, i64 0, i64 %10
  %12 = load i16, ptr %11, align 2
  %13 = zext i16 %12 to i32
  %14 = load i8, ptr %5, align 1, !range !6, !noundef !7
  %15 = trunc i8 %14 to i1
  %16 = select i1 %15, i32 108, i32 52
  %17 = mul i32 %13, %16
  %18 = sitofp i32 %17 to double
  %19 = fdiv double %18, 5.200000e+01
  %20 = load i8, ptr %6, align 1, !range !6, !noundef !7
  %21 = trunc i8 %20 to i1
  %22 = select i1 %21, double 3.600000e+00, double 4.000000e+00
  %23 = fdiv double %19, %22
  %24 = fptrunc double %23 to float
  ret float %24
}