; Function Attrs: mustprogress nofree norecurse nosync nounwind null_pointer_is_valid sspstrong willreturn memory(none) uwtable
define hidden float @ieee80211_htrate(i32 noundef %0, i1 noundef zeroext %1, i1 noundef zeroext %2) local_unnamed_addr #0 {
  %4 = sext i32 %0 to i64
  %5 = getelementptr [77 x i16], ptr @ieee80211_ht_Dbps, i64 0, i64 %4
  %6 = load i16, ptr %5, align 2
  %7 = zext i16 %6 to i32
  %8 = select i1 %1, i32 108, i32 52
  %9 = mul nuw nsw i32 %8, %7
  %10 = uitofp nneg i32 %9 to double
  %11 = fdiv double %10, 5.200000e+01
  %12 = select i1 %2, double 3.600000e+00, double 4.000000e+00
  %13 = fdiv double %11, %12
  %14 = fptrunc double %13 to float
  ret float %14
}